target datalayout = "e-m:e-p270:32:32-p271:32:32-p272:64:64-i64:64-i128:128-f80:128-n8:16:32:64-S128"
target triple = "x86_64-pc-linux-gnu"

%struct.H5O_loc_t = type { ptr, i64, i8 }

@H5O_init_g = external global i8, align 1
@H5_libterm_g = external global i8, align 1
@.str = private unnamed_addr constant [104 x i8] c"generated/home/dtcxzyw/WorkSpace/Projects/compilers/llvm-opt-benchmark/bench/hdf5/hdf5/src/H5Omessage.c\00", align 1
@H5E_FUNC_g = external global i64, align 8
@H5E_CANTINIT_g = external global i64, align 8
@.str.1 = private unnamed_addr constant [32 x i8] c"interface initialization failed\00", align 1
@H5E_OHDR_g = external global i64, align 8
@__func__.H5O_msg_read = private unnamed_addr constant [13 x i8] c"H5O_msg_read\00", align 1
@H5E_CANTPROTECT_g = external global i64, align 8
@.str.14 = private unnamed_addr constant [32 x i8] c"unable to protect object header\00", align 1
@H5E_READERROR_g = external global i64, align 8
@.str.15 = private unnamed_addr constant [37 x i8] c"unable to read object header message\00", align 1
@H5E_CANTUNPROTECT_g = external global i64, align 8
@.str.16 = private unnamed_addr constant [32 x i8] c"unable to release object header\00", align 1

; Function Attrs: nounwind uwtable
define ptr @H5O_msg_read(ptr noundef %0, i32 noundef %1, ptr noundef %2) #0 {
  %4 = alloca ptr, align 8
  %5 = alloca i32, align 4
  %6 = alloca ptr, align 8
  %7 = alloca ptr, align 8
  %8 = alloca ptr, align 8
  %9 = alloca i64, align 8
  %10 = alloca i8, align 1
  store ptr %0, ptr %4, align 8, !tbaa !3
  store i32 %1, ptr %5, align 4, !tbaa !8
  store ptr %2, ptr %6, align 8, !tbaa !10
  call void @llvm.lifetime.start.p0(i64 8, ptr %7) #5
  store ptr null, ptr %7, align 8, !tbaa !11
  call void @llvm.lifetime.start.p0(i64 8, ptr %8) #5
  store ptr null, ptr %8, align 8, !tbaa !10
  call void @llvm.lifetime.start.p0(i64 8, ptr %9) #5
  store i64 -1, ptr %9, align 8, !tbaa !17
  call void @llvm.lifetime.start.p0(i64 1, ptr %10) #5
  store i8 0, ptr %10, align 1, !tbaa !13
  %11 = load ptr, ptr %4, align 8, !tbaa !3
  %12 = getelementptr inbounds nuw %struct.H5O_loc_t, ptr %11, i32 0, i32 1
  %13 = load i64, ptr %12, align 8, !tbaa !59
  call void @H5AC_tag(i64 noundef %13, ptr noundef %9)
  %14 = load i8, ptr @H5O_init_g, align 1, !tbaa !13, !range !15, !noundef !16
  %15 = trunc i8 %14 to i1
  br i1 %15, label %20, label %16

16:                                               ; preds = %3
  %17 = load i8, ptr @H5_libterm_g, align 1, !tbaa !13, !range !15, !noundef !16
  %18 = trunc i8 %17 to i1
  %19 = xor i1 %18, true
  br label %20

20:                                               ; preds = %16, %3
  %21 = phi i1 [ false, %3 ], [ %19, %16 ]
  %22 = xor i1 %21, true
  %23 = xor i1 %22, true
  %24 = zext i1 %23 to i32
  %25 = sext i32 %24 to i64
  %26 = call i64 @llvm.expect.i64(i64 %25, i64 0)
  %27 = icmp ne i64 %26, 0
  br i1 %27, label %28, label %51

28:                                               ; preds = %20
  store i8 1, ptr @H5O_init_g, align 1, !tbaa !13
  %29 = call i32 @H5O__init_package()
  %30 = icmp slt i32 %29, 0
  br i1 %30, label %31, label %50

31:                                               ; preds = %28
  store i8 0, ptr @H5O_init_g, align 1, !tbaa !13
  br label %32

32:                                               ; preds = %31
  br label %33

33:                                               ; preds = %32
  br label %34

34:                                               ; preds = %33
  %35 = load i64, ptr @H5E_FUNC_g, align 8, !tbaa !17
  %36 = load i64, ptr @H5E_CANTINIT_g, align 8, !tbaa !17
  %37 = call i32 (ptr, ptr, i32, i64, i64, ptr, ...) @H5E_printf_stack(ptr noundef @.str, ptr noundef @__func__.H5O_msg_read, i32 noundef 417, i64 noundef %35, i64 noundef %36, ptr noundef @.str.1)
  br label %38

38:                                               ; preds = %34
  br label %39

39:                                               ; preds = %38
  store i8 1, ptr %10, align 1, !tbaa !13
  %40 = load i8, ptr %10, align 1, !tbaa !13, !range !15, !noundef !16
  %41 = trunc i8 %40 to i1
  %42 = zext i1 %41 to i8
  store i8 %42, ptr %10, align 1, !tbaa !13
  br label %43

43:                                               ; preds = %39
  br label %44

44:                                               ; preds = %43
  br label %45

45:                                               ; preds = %44
  store ptr null, ptr %8, align 8, !tbaa !10
  br label %118

46:                                               ; No predecessors!
  br label %47

47:                                               ; preds = %46
  br label %48

48:                                               ; preds = %47
  br label %49

49:                                               ; preds = %48
  br label %50

50:                                               ; preds = %49, %28
  br label %51

51:                                               ; preds = %50, %20
  %52 = load i8, ptr @H5O_init_g, align 1, !tbaa !13, !range !15, !noundef !16
  %53 = trunc i8 %52 to i1
  br i1 %53, label %58, label %54

54:                                               ; preds = %51
  %55 = load i8, ptr @H5_libterm_g, align 1, !tbaa !13, !range !15, !noundef !16
  %56 = trunc i8 %55 to i1
  %57 = xor i1 %56, true
  br label %58

58:                                               ; preds = %54, %51
  %59 = phi i1 [ true, %51 ], [ %57, %54 ]
  %60 = xor i1 %59, true
  %61 = xor i1 %60, true
  %62 = zext i1 %61 to i32
  %63 = sext i32 %62 to i64
  %64 = call i64 @llvm.expect.i64(i64 %63, i64 1)
  %65 = icmp ne i64 %64, 0
  br i1 %65, label %66, label %143

66:                                               ; preds = %58
  %67 = load ptr, ptr %4, align 8, !tbaa !3
  %68 = call ptr @H5O_protect(ptr noundef %67, i32 noundef 128, i1 noundef zeroext false)
  store ptr %68, ptr %7, align 8, !tbaa !11
  %69 = icmp eq ptr null, %68
  br i1 %69, label %70, label %89

70:                                               ; preds = %66
  br label %71

71:                                               ; preds = %70
  br label %72

72:                                               ; preds = %71
  br label %73

73:                                               ; preds = %72
  %74 = load i64, ptr @H5E_OHDR_g, align 8, !tbaa !17
  %75 = load i64, ptr @H5E_CANTPROTECT_g, align 8, !tbaa !17
  %76 = call i32 (ptr, ptr, i32, i64, i64, ptr, ...) @H5E_printf_stack(ptr noundef @.str, ptr noundef @__func__.H5O_msg_read, i32 noundef 427, i64 noundef %74, i64 noundef %75, ptr noundef @.str.14)
  br label %77

77:                                               ; preds = %73
  br label %78

78:                                               ; preds = %77
  store i8 1, ptr %10, align 1, !tbaa !13
  %79 = load i8, ptr %10, align 1, !tbaa !13, !range !15, !noundef !16
  %80 = trunc i8 %79 to i1
  %81 = zext i1 %80 to i8
  store i8 %81, ptr %10, align 1, !tbaa !13
  br label %82

82:                                               ; preds = %78
  br label %83

83:                                               ; preds = %82
  br label %84

84:                                               ; preds = %83
  store ptr null, ptr %8, align 8, !tbaa !10
  br label %118

85:                                               ; No predecessors!
  br label %86

86:                                               ; preds = %85
  br label %87

87:                                               ; preds = %86
  br label %88

88:                                               ; preds = %87
  br label %89

89:                                               ; preds = %88, %66
  %90 = load ptr, ptr %4, align 8, !tbaa !3
  %91 = getelementptr inbounds nuw %struct.H5O_loc_t, ptr %90, i32 0, i32 0
  %92 = load ptr, ptr %91, align 8, !tbaa !19
  %93 = load ptr, ptr %7, align 8, !tbaa !11
  %94 = load i32, ptr %5, align 4, !tbaa !8
  %95 = load ptr, ptr %6, align 8, !tbaa !10
  %96 = call ptr @H5O_msg_read_oh(ptr noundef %92, ptr noundef %93, i32 noundef %94, ptr noundef %95)
  store ptr %96, ptr %8, align 8, !tbaa !10
  %97 = icmp eq ptr null, %96
  br i1 %97, label %98, label %117

98:                                               ; preds = %89
  br label %99

99:                                               ; preds = %98
  br label %100

100:                                              ; preds = %99
  br label %101

101:                                              ; preds = %100
  %102 = load i64, ptr @H5E_OHDR_g, align 8, !tbaa !17
  %103 = load i64, ptr @H5E_READERROR_g, align 8, !tbaa !17
  %104 = call i32 (ptr, ptr, i32, i64, i64, ptr, ...) @H5E_printf_stack(ptr noundef @.str, ptr noundef @__func__.H5O_msg_read, i32 noundef 431, i64 noundef %102, i64 noundef %103, ptr noundef @.str.15)
  br label %105

105:                                              ; preds = %101
  br label %106

106:                                              ; preds = %105
  store i8 1, ptr %10, align 1, !tbaa !13
  %107 = load i8, ptr %10, align 1, !tbaa !13, !range !15, !noundef !16
  %108 = trunc i8 %107 to i1
  %109 = zext i1 %108 to i8
  store i8 %109, ptr %10, align 1, !tbaa !13
  br label %110

110:                                              ; preds = %106
  br label %111

111:                                              ; preds = %110
  br label %112

112:                                              ; preds = %111
  store ptr null, ptr %8, align 8, !tbaa !10
  br label %118

113:                                              ; No predecessors!
  br label %114

114:                                              ; preds = %113
  br label %115

115:                                              ; preds = %114
  br label %116

116:                                              ; preds = %115
  br label %117

117:                                              ; preds = %116, %89
  br label %118

118:                                              ; preds = %117, %112, %84, %45
  %119 = load ptr, ptr %7, align 8, !tbaa !11
  %120 = icmp ne ptr %119, null
  br i1 %120, label %121, label %142

121:                                              ; preds = %118
  %122 = load ptr, ptr %4, align 8, !tbaa !3
  %123 = load ptr, ptr %7, align 8, !tbaa !11
  %124 = call i32 @H5O_unprotect(ptr noundef %122, ptr noundef %123, i32 noundef 0)
  %125 = icmp slt i32 %124, 0
  br i1 %125, label %126, label %142

126:                                              ; preds = %121
  br label %127

127:                                              ; preds = %126
  br label %128

128:                                              ; preds = %127
  br label %129

129:                                              ; preds = %128
  %130 = load i64, ptr @H5E_OHDR_g, align 8, !tbaa !17
  %131 = load i64, ptr @H5E_CANTUNPROTECT_g, align 8, !tbaa !17
  %132 = call i32 (ptr, ptr, i32, i64, i64, ptr, ...) @H5E_printf_stack(ptr noundef @.str, ptr noundef @__func__.H5O_msg_read, i32 noundef 435, i64 noundef %130, i64 noundef %131, ptr noundef @.str.16)
  br label %133

133:                                              ; preds = %129
  br label %134

134:                                              ; preds = %133
  store i8 1, ptr %10, align 1, !tbaa !13
  %135 = load i8, ptr %10, align 1, !tbaa !13, !range !15, !noundef !16
  %136 = trunc i8 %135 to i1
  %137 = zext i1 %136 to i8
  store i8 %137, ptr %10, align 1, !tbaa !13
  br label %138

138:                                              ; preds = %134
  br label %139

139:                                              ; preds = %138
  store ptr null, ptr %8, align 8, !tbaa !10
  br label %140

140:                                              ; preds = %139
  br label %141

141:                                              ; preds = %140
  br label %142

142:                                              ; preds = %141, %121, %118
  br label %143

143:                                              ; preds = %142, %58
  %144 = load i64, ptr %9, align 8, !tbaa !17
  call void @H5AC_tag(i64 noundef %144, ptr noundef null)
  %145 = load ptr, ptr %8, align 8, !tbaa !10
  call void @llvm.lifetime.end.p0(i64 1, ptr %10) #5
  call void @llvm.lifetime.end.p0(i64 8, ptr %9) #5
  call void @llvm.lifetime.end.p0(i64 8, ptr %8) #5
  call void @llvm.lifetime.end.p0(i64 8, ptr %7) #5
  ret ptr %145
}