; Function Attrs: nounwind uwtable
define ptr @H5O_msg_read(ptr noundef %0, i32 noundef %1, ptr noundef %2) local_unnamed_addr #0 {
  %4 = alloca i64, align 8
  call void @llvm.lifetime.start.p0(i64 8, ptr nonnull %4) #7
  store i64 -1, ptr %4, align 8, !tbaa !10
  %5 = getelementptr inbounds nuw i8, ptr %0, i64 8
  %6 = load i64, ptr %5, align 8, !tbaa !54
  call void @H5AC_tag(i64 noundef %6, ptr noundef nonnull %4) #7
  %7 = load i8, ptr @H5O_init_g, align 1, !tbaa !3, !range !7, !noundef !8
  %8 = trunc nuw i8 %7 to i1
  %9 = load i8, ptr @H5_libterm_g, align 1, !range !7
  %10 = trunc nuw i8 %9 to i1
  %11 = select i1 %8, i1 true, i1 %10
  br i1 %11, label %19, label %12, !prof !9

12:                                               ; preds = %3
  store i8 1, ptr @H5O_init_g, align 1, !tbaa !3
  %13 = call i32 @H5O__init_package() #7
  %14 = icmp slt i32 %13, 0
  br i1 %14, label %15, label %._crit_edge

._crit_edge:                                      ; preds = %12
  %.pre = load i8, ptr @H5O_init_g, align 1, !tbaa !3, !range !7
  %.pre20 = load i8, ptr @H5_libterm_g, align 1, !range !7
  %.pre21 = trunc nuw i8 %.pre to i1
  %.pre22 = trunc nuw i8 %.pre20 to i1
  br label %19

15:                                               ; preds = %12
  store i8 0, ptr @H5O_init_g, align 1, !tbaa !3
  %16 = load i64, ptr @H5E_FUNC_g, align 8, !tbaa !10
  %17 = load i64, ptr @H5E_CANTINIT_g, align 8, !tbaa !10
  %18 = call i32 (ptr, ptr, i32, i64, i64, ptr, ...) @H5E_printf_stack(ptr noundef nonnull @.str, ptr noundef nonnull @__func__.H5O_msg_read, i32 noundef 417, i64 noundef %16, i64 noundef %17, ptr noundef nonnull @.str.1) #7
  br label %.thread

19:                                               ; preds = %._crit_edge, %3
  %.pre-phi23 = phi i1 [ %.pre22, %._crit_edge ], [ %10, %3 ]
  %.pre-phi = phi i1 [ %.pre21, %._crit_edge ], [ %8, %3 ]
  %20 = xor i1 %.pre-phi23, true
  %21 = select i1 %.pre-phi, i1 true, i1 %20
  br i1 %21, label %22, label %.thread, !prof !9

22:                                               ; preds = %19
  %23 = call ptr @H5O_protect(ptr noundef nonnull %0, i32 noundef 128, i1 noundef zeroext false) #7
  %24 = icmp eq ptr %23, null
  br i1 %24, label %25, label %29

25:                                               ; preds = %22
  %26 = load i64, ptr @H5E_OHDR_g, align 8, !tbaa !10
  %27 = load i64, ptr @H5E_CANTPROTECT_g, align 8, !tbaa !10
  %28 = call i32 (ptr, ptr, i32, i64, i64, ptr, ...) @H5E_printf_stack(ptr noundef nonnull @.str, ptr noundef nonnull @__func__.H5O_msg_read, i32 noundef 427, i64 noundef %26, i64 noundef %27, ptr noundef nonnull @.str.14) #7
  br label %.thread

29:                                               ; preds = %22
  %30 = load ptr, ptr %0, align 8, !tbaa !12
  %31 = call ptr @H5O_msg_read_oh(ptr noundef %30, ptr noundef nonnull %23, i32 noundef %1, ptr noundef %2)
  %32 = icmp eq ptr %31, null
  br i1 %32, label %33, label %37

33:                                               ; preds = %29
  %34 = load i64, ptr @H5E_OHDR_g, align 8, !tbaa !10
  %35 = load i64, ptr @H5E_READERROR_g, align 8, !tbaa !10
  %36 = call i32 (ptr, ptr, i32, i64, i64, ptr, ...) @H5E_printf_stack(ptr noundef nonnull @.str, ptr noundef nonnull @__func__.H5O_msg_read, i32 noundef 431, i64 noundef %34, i64 noundef %35, ptr noundef nonnull @.str.15) #7
  br label %37

37:                                               ; preds = %33, %29
  %38 = call i32 @H5O_unprotect(ptr noundef nonnull %0, ptr noundef nonnull %23, i32 noundef 0) #7
  %39 = icmp slt i32 %38, 0
  br i1 %39, label %40, label %.thread

40:                                               ; preds = %37
  %41 = load i64, ptr @H5E_OHDR_g, align 8, !tbaa !10
  %42 = load i64, ptr @H5E_CANTUNPROTECT_g, align 8, !tbaa !10
  %43 = call i32 (ptr, ptr, i32, i64, i64, ptr, ...) @H5E_printf_stack(ptr noundef nonnull @.str, ptr noundef nonnull @__func__.H5O_msg_read, i32 noundef 435, i64 noundef %41, i64 noundef %42, ptr noundef nonnull @.str.16) #7
  br label %.thread

.thread:                                          ; preds = %25, %15, %37, %40, %19
  %.1 = phi ptr [ null, %40 ], [ %31, %37 ], [ null, %19 ], [ null, %15 ], [ null, %25 ]
  %44 = load i64, ptr %4, align 8, !tbaa !10
  call void @H5AC_tag(i64 noundef %44, ptr noundef null) #7
  call void @llvm.lifetime.end.p0(i64 8, ptr nonnull %4) #7
  ret ptr %.1
}